target datalayout = "e-m:e-p270:32:32-p271:32:32-p272:64:64-i64:64-i128:128-f80:128-n8:16:32:64-S128"
target triple = "x86_64-pc-linux-gnu"

%"struct.duckdb_libpgquery::yy_buffer_state" = type { ptr, ptr, ptr, i64, i64, i32, i32, i32, i32, i32, i32, i32 }

@.str.28 = private unnamed_addr constant [42 x i8] c"out of dynamic memory in yy_scan_buffer()\00", align 1

; Function Attrs: mustprogress uwtable
define hidden noundef ptr @_ZN17duckdb_libpgquery12core_yyallocEmPv(i64 noundef %0, ptr noundef %1) #0 {
  %3 = alloca i64, align 8
  %4 = alloca ptr, align 8
  store i64 %0, ptr %3, align 8, !tbaa !74
  store ptr %1, ptr %4, align 8, !tbaa !10
  %5 = load i64, ptr %3, align 8, !tbaa !74
  %6 = call noundef ptr @_ZN17duckdb_libpgquery6pallocEm(i64 noundef %5)
  ret ptr %6
}

; Function Attrs: mustprogress uwtable
define hidden noundef ptr @_ZN17duckdb_libpgquery19core_yy_scan_bufferEPcmPv(ptr noundef %0, i64 noundef %1, ptr noundef %2) #0 {
  %4 = alloca ptr, align 8
  %5 = alloca ptr, align 8
  %6 = alloca i64, align 8
  %7 = alloca ptr, align 8
  %8 = alloca ptr, align 8
  %9 = alloca i32, align 4
  store ptr %0, ptr %5, align 8, !tbaa !30
  store i64 %1, ptr %6, align 8, !tbaa !74
  store ptr %2, ptr %7, align 8, !tbaa !10
  call void @llvm.lifetime.start.p0(i64 8, ptr %8) #11
  %10 = load i64, ptr %6, align 8, !tbaa !74
  %11 = icmp ult i64 %10, 2
  br i1 %11, label %28, label %12

12:                                               ; preds = %3
  %13 = load ptr, ptr %5, align 8, !tbaa !30
  %14 = load i64, ptr %6, align 8, !tbaa !74
  %15 = sub i64 %14, 2
  %16 = getelementptr inbounds nuw i8, ptr %13, i64 %15
  %17 = load i8, ptr %16, align 1, !tbaa !32
  %18 = sext i8 %17 to i32
  %19 = icmp ne i32 %18, 0
  br i1 %19, label %28, label %20

20:                                               ; preds = %12
  %21 = load ptr, ptr %5, align 8, !tbaa !30
  %22 = load i64, ptr %6, align 8, !tbaa !74
  %23 = sub i64 %22, 1
  %24 = getelementptr inbounds nuw i8, ptr %21, i64 %23
  %25 = load i8, ptr %24, align 1, !tbaa !32
  %26 = sext i8 %25 to i32
  %27 = icmp ne i32 %26, 0
  br i1 %27, label %28, label %29

28:                                               ; preds = %20, %12, %3
  store ptr null, ptr %4, align 8
  store i32 1, ptr %9, align 4
  br label %68

29:                                               ; preds = %20
  %30 = load ptr, ptr %7, align 8, !tbaa !10
  %31 = call noundef ptr @_ZN17duckdb_libpgquery12core_yyallocEmPv(i64 noundef 72, ptr noundef %30)
  store ptr %31, ptr %8, align 8, !tbaa !26
  %32 = load ptr, ptr %8, align 8, !tbaa !26
  %33 = icmp ne ptr %32, null
  br i1 %33, label %36, label %34

34:                                               ; preds = %29
  %35 = load ptr, ptr %7, align 8, !tbaa !10
  call void @_ZN17duckdb_libpgqueryL14yy_fatal_errorEPKcPv(ptr noundef @.str.28, ptr noundef %35) #13
  unreachable

36:                                               ; preds = %29
  %37 = load i64, ptr %6, align 8, !tbaa !74
  %38 = sub i64 %37, 2
  %39 = trunc i64 %38 to i32
  %40 = sext i32 %39 to i64
  %41 = load ptr, ptr %8, align 8, !tbaa !26
  %42 = getelementptr inbounds nuw %"struct.duckdb_libpgquery::yy_buffer_state", ptr %41, i32 0, i32 3
  store i64 %40, ptr %42, align 8, !tbaa !77
  %43 = load ptr, ptr %5, align 8, !tbaa !30
  %44 = load ptr, ptr %8, align 8, !tbaa !26
  %45 = getelementptr inbounds nuw %"struct.duckdb_libpgquery::yy_buffer_state", ptr %44, i32 0, i32 1
  store ptr %43, ptr %45, align 8, !tbaa !71
  %46 = load ptr, ptr %8, align 8, !tbaa !26
  %47 = getelementptr inbounds nuw %"struct.duckdb_libpgquery::yy_buffer_state", ptr %46, i32 0, i32 2
  store ptr %43, ptr %47, align 8, !tbaa !79
  %48 = load ptr, ptr %8, align 8, !tbaa !26
  %49 = getelementptr inbounds nuw %"struct.duckdb_libpgquery::yy_buffer_state", ptr %48, i32 0, i32 5
  store i32 0, ptr %49, align 8, !tbaa !78
  %50 = load ptr, ptr %8, align 8, !tbaa !26
  %51 = getelementptr inbounds nuw %"struct.duckdb_libpgquery::yy_buffer_state", ptr %50, i32 0, i32 0
  store ptr null, ptr %51, align 8, !tbaa !70
  %52 = load ptr, ptr %8, align 8, !tbaa !26
  %53 = getelementptr inbounds nuw %"struct.duckdb_libpgquery::yy_buffer_state", ptr %52, i32 0, i32 3
  %54 = load i64, ptr %53, align 8, !tbaa !77
  %55 = load ptr, ptr %8, align 8, !tbaa !26
  %56 = getelementptr inbounds nuw %"struct.duckdb_libpgquery::yy_buffer_state", ptr %55, i32 0, i32 4
  store i64 %54, ptr %56, align 8, !tbaa !68
  %57 = load ptr, ptr %8, align 8, !tbaa !26
  %58 = getelementptr inbounds nuw %"struct.duckdb_libpgquery::yy_buffer_state", ptr %57, i32 0, i32 6
  store i32 0, ptr %58, align 4, !tbaa !92
  %59 = load ptr, ptr %8, align 8, !tbaa !26
  %60 = getelementptr inbounds nuw %"struct.duckdb_libpgquery::yy_buffer_state", ptr %59, i32 0, i32 7
  store i32 1, ptr %60, align 8, !tbaa !97
  %61 = load ptr, ptr %8, align 8, !tbaa !26
  %62 = getelementptr inbounds nuw %"struct.duckdb_libpgquery::yy_buffer_state", ptr %61, i32 0, i32 10
  store i32 0, ptr %62, align 4, !tbaa !89
  %63 = load ptr, ptr %8, align 8, !tbaa !26
  %64 = getelementptr inbounds nuw %"struct.duckdb_libpgquery::yy_buffer_state", ptr %63, i32 0, i32 11
  store i32 0, ptr %64, align 8, !tbaa !66
  %65 = load ptr, ptr %8, align 8, !tbaa !26
  %66 = load ptr, ptr %7, align 8, !tbaa !10
  call void @_ZN17duckdb_libpgquery24core_yy_switch_to_bufferEPNS_15yy_buffer_stateEPv(ptr noundef %65, ptr noundef %66)
  %67 = load ptr, ptr %8, align 8, !tbaa !26
  store ptr %67, ptr %4, align 8
  store i32 1, ptr %9, align 4
  br label %68

68:                                               ; preds = %36, %28
  call void @llvm.lifetime.end.p0(i64 8, ptr %8) #11
  %69 = load ptr, ptr %4, align 8
  ret ptr %69
}