; Function Attrs: mustprogress uwtable
define hidden noundef ptr @_ZN17duckdb_libpgquery19core_yy_scan_bufferEPcmPv(ptr noundef %0, i64 noundef %1, ptr noundef captures(none) %2) local_unnamed_addr #0 {
  %4 = icmp ult i64 %1, 2
  br i1 %4, label %27, label %5

5:                                                ; preds = %3
  %6 = add i64 %1, -2
  %7 = getelementptr inbounds nuw i8, ptr %0, i64 %6
  %8 = load i8, ptr %7, align 1, !tbaa !32
  %.not = icmp eq i8 %8, 0
  br i1 %.not, label %9, label %27

9:                                                ; preds = %5
  %10 = getelementptr i8, ptr %0, i64 %1
  %11 = getelementptr i8, ptr %10, i64 -1
  %12 = load i8, ptr %11, align 1, !tbaa !32
  %.not26 = icmp eq i8 %12, 0
  br i1 %.not26, label %13, label %27

13:                                               ; preds = %9
  %14 = tail call noundef ptr @_ZN17duckdb_libpgquery6pallocEm(i64 noundef 72)
  %.not27 = icmp eq ptr %14, null
  br i1 %.not27, label %15, label %16

15:                                               ; preds = %13
  tail call fastcc void @_ZN17duckdb_libpgqueryL14yy_fatal_errorEPKcPv(ptr noundef nonnull @.str.28) #20
  unreachable

16:                                               ; preds = %13
  %sext = shl i64 %6, 32
  %17 = ashr exact i64 %sext, 32
  %18 = getelementptr inbounds nuw i8, ptr %14, i64 24
  store i64 %17, ptr %18, align 8, !tbaa !77
  %19 = getelementptr inbounds nuw i8, ptr %14, i64 8
  store ptr %0, ptr %19, align 8, !tbaa !71
  %20 = getelementptr inbounds nuw i8, ptr %14, i64 16
  store ptr %0, ptr %20, align 8, !tbaa !28
  %21 = getelementptr inbounds nuw i8, ptr %14, i64 40
  store i32 0, ptr %21, align 8, !tbaa !78
  store ptr null, ptr %14, align 8, !tbaa !31
  %22 = getelementptr inbounds nuw i8, ptr %14, i64 32
  store i64 %17, ptr %22, align 8, !tbaa !25
  %23 = getelementptr inbounds nuw i8, ptr %14, i64 44
  store i32 0, ptr %23, align 4, !tbaa !80
  %24 = getelementptr inbounds nuw i8, ptr %14, i64 48
  store i32 1, ptr %24, align 8, !tbaa !84
  %25 = getelementptr inbounds nuw i8, ptr %14, i64 60
  store i32 0, ptr %25, align 4, !tbaa !75
  %26 = getelementptr inbounds nuw i8, ptr %14, i64 64
  store i32 0, ptr %26, align 8, !tbaa !70
  tail call void @_ZN17duckdb_libpgquery24core_yy_switch_to_bufferEPNS_15yy_buffer_stateEPv(ptr noundef nonnull %14, ptr noundef %2)
  br label %27

27:                                               ; preds = %3, %5, %9, %16
  %.0 = phi ptr [ %14, %16 ], [ null, %9 ], [ null, %5 ], [ null, %3 ]
  ret ptr %.0
}